target datalayout = "e-m:e-p270:32:32-p271:32:32-p272:64:64-i64:64-i128:128-f80:128-n8:16:32:64-S128"
target triple = "x86_64-unknown-linux-gnu"

%"class.icu_75::UnicodeString" = type { %"class.icu_75::Replaceable", %"union.icu_75::UnicodeString::StackBufferOrFields" }
%"class.icu_75::Replaceable" = type { %"class.icu_75::UObject" }
%"class.icu_75::UObject" = type { ptr }
%"union.icu_75::UnicodeString::StackBufferOrFields" = type { %struct.anon.0, [32 x i8] }
%struct.anon.0 = type { i16, i32, i32, ptr }
%class.RBDataMap = type { %class.DataMap, ptr }
%class.DataMap = type { ptr }
%"class.icu_75::Hashtable" = type { ptr, %struct.UHashtable }
%struct.UHashtable = type { ptr, ptr, ptr, ptr, ptr, ptr, i32, i32, i32, i32, float, float, i8, i8 }

; Function Attrs: mustprogress uwtable
define linkonce_odr noundef ptr @_ZN6icu_759Hashtable3putERKNS_13UnicodeStringEPvR10UErrorCode(ptr noundef nonnull align 8 dereferenceable(88) %this, ptr noundef nonnull align 8 dereferenceable(64) %key, ptr noundef %value, ptr noundef nonnull align 4 dereferenceable(4) %status) #2 comdat align 2 personality ptr @__gxx_personality_v0 {
entry:
  %this.addr = alloca ptr, align 8
  %key.addr = alloca ptr, align 8
  %value.addr = alloca ptr, align 8
  %status.addr = alloca ptr, align 8
  %cleanup.cond = alloca i1, align 1
  %exn.slot = alloca ptr, align 8
  %ehselector.slot = alloca i32, align 4
  store ptr %this, ptr %this.addr, align 8
  store ptr %key, ptr %key.addr, align 8
  store ptr %value, ptr %value.addr, align 8
  store ptr %status, ptr %status.addr, align 8
  %this1 = load ptr, ptr %this.addr, align 8
  %hash = getelementptr inbounds %"class.icu_75::Hashtable", ptr %this1, i32 0, i32 0
  %0 = load ptr, ptr %hash, align 8
  %call = call noundef ptr @_ZN6icu_757UMemorynwEm(i64 noundef 64) #12
  %new.isnull = icmp eq ptr %call, null
  store i1 false, ptr %cleanup.cond, align 1
  br i1 %new.isnull, label %new.cont, label %new.notnull

new.notnull:                                      ; preds = %entry
  store i1 true, ptr %cleanup.cond, align 1
  %1 = load ptr, ptr %key.addr, align 8
  invoke void @_ZN6icu_7513UnicodeStringC1ERKS0_(ptr noundef nonnull align 8 dereferenceable(64) %call, ptr noundef nonnull align 8 dereferenceable(64) %1)
          to label %invoke.cont unwind label %lpad

invoke.cont:                                      ; preds = %new.notnull
  br label %new.cont

new.cont:                                         ; preds = %invoke.cont, %entry
  %2 = phi ptr [ %call, %invoke.cont ], [ null, %entry ]
  %3 = load ptr, ptr %value.addr, align 8
  %4 = load ptr, ptr %status.addr, align 8
  %call2 = call ptr @uhash_put_75(ptr noundef %0, ptr noundef %2, ptr noundef %3, ptr noundef %4)
  ret ptr %call2

lpad:                                             ; preds = %new.notnull
  %5 = landingpad { ptr, i32 }
          cleanup
  %6 = extractvalue { ptr, i32 } %5, 0
  store ptr %6, ptr %exn.slot, align 8
  %7 = extractvalue { ptr, i32 } %5, 1
  store i32 %7, ptr %ehselector.slot, align 4
  %cleanup.is_active = load i1, ptr %cleanup.cond, align 1
  br i1 %cleanup.is_active, label %cleanup.action, label %cleanup.done

cleanup.action:                                   ; preds = %lpad
  call void @_ZN6icu_757UMemorydlEPv(ptr noundef %call) #12
  br label %cleanup.done

cleanup.done:                                     ; preds = %cleanup.action, %lpad
  br label %eh.resume

eh.resume:                                        ; preds = %cleanup.done
  %exn = load ptr, ptr %exn.slot, align 8
  %sel = load i32, ptr %ehselector.slot, align 4
  %lpad.val = insertvalue { ptr, i32 } poison, ptr %exn, 0
  %lpad.val3 = insertvalue { ptr, i32 } %lpad.val, i32 %sel, 1
  resume { ptr, i32 } %lpad.val3
}

; Function Attrs: mustprogress uwtable
define linkonce_odr void @_ZN6icu_759Hashtable9removeAllEv(ptr noundef nonnull align 8 dereferenceable(88) %this) #2 comdat align 2 {
entry:
  %this.addr = alloca ptr, align 8
  store ptr %this, ptr %this.addr, align 8
  %this1 = load ptr, ptr %this.addr, align 8
  %hash = getelementptr inbounds %"class.icu_75::Hashtable", ptr %this1, i32 0, i32 0
  %0 = load ptr, ptr %hash, align 8
  call void @uhash_removeAll_75(ptr noundef %0)
  ret void
}

; Function Attrs: mustprogress uwtable
define void @_ZN9RBDataMap4initEP15UResourceBundleS1_R10UErrorCode(ptr noundef nonnull align 8 dereferenceable(16) %this, ptr noundef %headers, ptr noundef %data, ptr noundef nonnull align 4 dereferenceable(4) %status) #2 align 2 personality ptr @__gxx_personality_v0 {
entry:
  %this.addr = alloca ptr, align 8
  %headers.addr = alloca ptr, align 8
  %data.addr = alloca ptr, align 8
  %status.addr = alloca ptr, align 8
  %i = alloca i32, align 4
  %t = alloca ptr, align 8
  %key = alloca ptr, align 8
  %keyLen = alloca i32, align 4
  %ref.tmp = alloca %"class.icu_75::UnicodeString", align 8
  %saved-rvalue = alloca ptr, align 8
  %cleanup.cond = alloca i1, align 1
  %exn.slot = alloca ptr, align 8
  %ehselector.slot = alloca i32, align 4
  store ptr %this, ptr %this.addr, align 8
  store ptr %headers, ptr %headers.addr, align 8
  store ptr %data, ptr %data.addr, align 8
  store ptr %status, ptr %status.addr, align 8
  %this1 = load ptr, ptr %this.addr, align 8
  store i32 0, ptr %i, align 4
  %fData = getelementptr inbounds %class.RBDataMap, ptr %this1, i32 0, i32 1
  %0 = load ptr, ptr %fData, align 8
  call void @_ZN6icu_759Hashtable9removeAllEv(ptr noundef nonnull align 8 dereferenceable(88) %0)
  store ptr null, ptr %t, align 8
  store ptr null, ptr %key, align 8
  store i32 0, ptr %keyLen, align 4
  %1 = load ptr, ptr %headers.addr, align 8
  %call = call i32 @ures_getSize_75(ptr noundef %1)
  %2 = load ptr, ptr %data.addr, align 8
  %call2 = call i32 @ures_getSize_75(ptr noundef %2)
  %cmp = icmp eq i32 %call, %call2
  br i1 %cmp, label %if.then, label %if.else

if.then:                                          ; preds = %entry
  store i32 0, ptr %i, align 4
  br label %for.cond

for.cond:                                         ; preds = %for.inc, %if.then
  %3 = load i32, ptr %i, align 4
  %4 = load ptr, ptr %data.addr, align 8
  %call3 = call i32 @ures_getSize_75(ptr noundef %4)
  %cmp4 = icmp slt i32 %3, %call3
  br i1 %cmp4, label %for.body, label %for.end

for.body:                                         ; preds = %for.cond
  %5 = load ptr, ptr %data.addr, align 8
  %6 = load i32, ptr %i, align 4
  %7 = load ptr, ptr %t, align 8
  %8 = load ptr, ptr %status.addr, align 8
  %call5 = call ptr @ures_getByIndex_75(ptr noundef %5, i32 noundef %6, ptr noundef %7, ptr noundef %8)
  store ptr %call5, ptr %t, align 8
  %9 = load ptr, ptr %headers.addr, align 8
  %10 = load i32, ptr %i, align 4
  %11 = load ptr, ptr %status.addr, align 8
  %call6 = call ptr @ures_getStringByIndex_75(ptr noundef %9, i32 noundef %10, ptr noundef %keyLen, ptr noundef %11)
  store ptr %call6, ptr %key, align 8
  %fData7 = getelementptr inbounds %class.RBDataMap, ptr %this1, i32 0, i32 1
  %12 = load ptr, ptr %fData7, align 8
  %13 = load ptr, ptr %key, align 8
  %14 = load i32, ptr %keyLen, align 4
  call void @_ZN6icu_7513UnicodeStringC1EPKDsi(ptr noundef nonnull align 8 dereferenceable(64) %ref.tmp, ptr noundef %13, i32 noundef %14)
  %call8 = call noundef ptr @_ZN6icu_757UMemorynwEm(i64 noundef 24) #12
  %new.isnull = icmp eq ptr %call8, null
  store i1 false, ptr %cleanup.cond, align 1
  br i1 %new.isnull, label %new.cont, label %new.notnull

new.notnull:                                      ; preds = %for.body
  store ptr %call8, ptr %saved-rvalue, align 8
  store i1 true, ptr %cleanup.cond, align 1
  %15 = load ptr, ptr %t, align 8
  %16 = load ptr, ptr %status.addr, align 8
  invoke void @_ZN6icu_7514ResourceBundleC1EP15UResourceBundleR10UErrorCode(ptr noundef nonnull align 8 dereferenceable(24) %call8, ptr noundef %15, ptr noundef nonnull align 4 dereferenceable(4) %16)
          to label %invoke.cont unwind label %lpad

invoke.cont:                                      ; preds = %new.notnull
  br label %new.cont

new.cont:                                         ; preds = %invoke.cont, %for.body
  %17 = phi ptr [ %call8, %invoke.cont ], [ null, %for.body ]
  %18 = load ptr, ptr %status.addr, align 8
  %call11 = invoke noundef ptr @_ZN6icu_759Hashtable3putERKNS_13UnicodeStringEPvR10UErrorCode(ptr noundef nonnull align 8 dereferenceable(88) %12, ptr noundef nonnull align 8 dereferenceable(64) %ref.tmp, ptr noundef %17, ptr noundef nonnull align 4 dereferenceable(4) %18)
          to label %invoke.cont10 unwind label %lpad9

invoke.cont10:                                    ; preds = %new.cont
  call void @_ZN6icu_7513UnicodeStringD1Ev(ptr noundef nonnull align 8 dereferenceable(64) %ref.tmp) #12
  br label %for.inc

for.inc:                                          ; preds = %invoke.cont10
  %19 = load i32, ptr %i, align 4
  %inc = add nsw i32 %19, 1
  store i32 %inc, ptr %i, align 4
  br label %for.cond, !llvm.loop !7

lpad:                                             ; preds = %new.notnull
  %20 = landingpad { ptr, i32 }
          cleanup
  %21 = extractvalue { ptr, i32 } %20, 0
  store ptr %21, ptr %exn.slot, align 8
  %22 = extractvalue { ptr, i32 } %20, 1
  store i32 %22, ptr %ehselector.slot, align 4
  %cleanup.is_active = load i1, ptr %cleanup.cond, align 1
  br i1 %cleanup.is_active, label %cleanup.action, label %cleanup.done

cleanup.action:                                   ; preds = %lpad
  %23 = load ptr, ptr %saved-rvalue, align 8
  call void @_ZN6icu_757UMemorydlEPv(ptr noundef %23) #12
  br label %cleanup.done

cleanup.done:                                     ; preds = %cleanup.action, %lpad
  br label %ehcleanup

lpad9:                                            ; preds = %new.cont
  %24 = landingpad { ptr, i32 }
          cleanup
  %25 = extractvalue { ptr, i32 } %24, 0
  store ptr %25, ptr %exn.slot, align 8
  %26 = extractvalue { ptr, i32 } %24, 1
  store i32 %26, ptr %ehselector.slot, align 4
  br label %ehcleanup

ehcleanup:                                        ; preds = %lpad9, %cleanup.done
  call void @_ZN6icu_7513UnicodeStringD1Ev(ptr noundef nonnull align 8 dereferenceable(64) %ref.tmp) #12
  br label %eh.resume

for.end:                                          ; preds = %for.cond
  br label %if.end

if.else:                                          ; preds = %entry
  %27 = load ptr, ptr %status.addr, align 8
  store i32 3, ptr %27, align 4
  br label %if.end

if.end:                                           ; preds = %if.else, %for.end
  %28 = load ptr, ptr %t, align 8
  call void @ures_close_75(ptr noundef %28)
  ret void

eh.resume:                                        ; preds = %ehcleanup
  %exn = load ptr, ptr %exn.slot, align 8
  %sel = load i32, ptr %ehselector.slot, align 4
  %lpad.val = insertvalue { ptr, i32 } poison, ptr %exn, 0
  %lpad.val12 = insertvalue { ptr, i32 } %lpad.val, i32 %sel, 1
  resume { ptr, i32 } %lpad.val12
}