; Function Attrs: mustprogress uwtable
define void @_ZN9RBDataMap4initEP15UResourceBundleS1_R10UErrorCode(ptr nocapture noundef nonnull readonly align 8 dereferenceable(16) %this, ptr noundef %headers, ptr noundef %data, ptr noundef nonnull align 4 dereferenceable(4) %status) local_unnamed_addr #4 align 2 personality ptr @__gxx_personality_v0 {
entry:
  %keyLen = alloca i32, align 4
  %ref.tmp = alloca %"class.icu_75::UnicodeString", align 8
  %fData = getelementptr inbounds i8, ptr %this, i64 8
  %0 = load ptr, ptr %fData, align 8
  %1 = load ptr, ptr %0, align 8
  tail call void @uhash_removeAll_75(ptr noundef %1)
  store i32 0, ptr %keyLen, align 4
  %call = tail call i32 @ures_getSize_75(ptr noundef %headers)
  %call2 = tail call i32 @ures_getSize_75(ptr noundef %data)
  %cmp = icmp eq i32 %call, %call2
  br i1 %cmp, label %for.cond.preheader, label %if.else

for.cond.preheader:                               ; preds = %entry
  %call321 = tail call i32 @ures_getSize_75(ptr noundef %data)
  %cmp422 = icmp sgt i32 %call321, 0
  br i1 %cmp422, label %for.body, label %if.end

for.body:                                         ; preds = %for.cond.preheader, %invoke.cont10
  %i.024 = phi i32 [ %inc, %invoke.cont10 ], [ 0, %for.cond.preheader ]
  %t.023 = phi ptr [ %call5, %invoke.cont10 ], [ null, %for.cond.preheader ]
  %call5 = call ptr @ures_getByIndex_75(ptr noundef %data, i32 noundef %i.024, ptr noundef %t.023, ptr noundef nonnull %status)
  %call6 = call ptr @ures_getStringByIndex_75(ptr noundef %headers, i32 noundef %i.024, ptr noundef nonnull %keyLen, ptr noundef nonnull %status)
  %2 = load ptr, ptr %fData, align 8
  %3 = load i32, ptr %keyLen, align 4
  call void @_ZN6icu_7513UnicodeStringC1EPKDsi(ptr noundef nonnull align 8 dereferenceable(64) %ref.tmp, ptr noundef %call6, i32 noundef %3)
  %call8 = call noundef ptr @_ZN6icu_757UMemorynwEm(i64 noundef 24) #15
  %new.isnull = icmp eq ptr %call8, null
  br i1 %new.isnull, label %new.cont, label %new.notnull

new.notnull:                                      ; preds = %for.body
  invoke void @_ZN6icu_7514ResourceBundleC1EP15UResourceBundleR10UErrorCode(ptr noundef nonnull align 8 dereferenceable(24) %call8, ptr noundef %call5, ptr noundef nonnull align 4 dereferenceable(4) %status)
          to label %new.cont unwind label %lpad

new.cont:                                         ; preds = %new.notnull, %for.body
  %4 = load ptr, ptr %2, align 8
  %call.i = call noundef ptr @_ZN6icu_757UMemorynwEm(i64 noundef 64) #15
  %new.isnull.i = icmp eq ptr %call.i, null
  br i1 %new.isnull.i, label %new.cont.i, label %new.notnull.i

new.notnull.i:                                    ; preds = %new.cont
  invoke void @_ZN6icu_7513UnicodeStringC1ERKS0_(ptr noundef nonnull align 8 dereferenceable(64) %call.i, ptr noundef nonnull align 8 dereferenceable(64) %ref.tmp)
          to label %new.cont.i unwind label %lpad.i

new.cont.i:                                       ; preds = %new.notnull.i, %new.cont
  %call2.i14 = invoke noundef ptr @uhash_put_75(ptr noundef %4, ptr noundef %call.i, ptr noundef %call8, ptr noundef nonnull %status)
          to label %invoke.cont10 unwind label %lpad9

lpad.i:                                           ; preds = %new.notnull.i
  %5 = landingpad { ptr, i32 }
          cleanup
  call void @_ZN6icu_757UMemorydlEPv(ptr noundef nonnull %call.i) #15
  br label %ehcleanup

invoke.cont10:                                    ; preds = %new.cont.i
  call void @_ZN6icu_7513UnicodeStringD1Ev(ptr noundef nonnull align 8 dereferenceable(64) %ref.tmp) #15
  %inc = add nuw nsw i32 %i.024, 1
  %call3 = call i32 @ures_getSize_75(ptr noundef %data)
  %cmp4 = icmp slt i32 %inc, %call3
  br i1 %cmp4, label %for.body, label %if.end, !llvm.loop !7

lpad:                                             ; preds = %new.notnull
  %6 = landingpad { ptr, i32 }
          cleanup
  call void @_ZN6icu_757UMemorydlEPv(ptr noundef nonnull %call8) #15
  br label %ehcleanup

lpad9:                                            ; preds = %new.cont.i
  %7 = landingpad { ptr, i32 }
          cleanup
  br label %ehcleanup

ehcleanup:                                        ; preds = %lpad9, %lpad.i, %lpad
  %.pn = phi { ptr, i32 } [ %6, %lpad ], [ %7, %lpad9 ], [ %5, %lpad.i ]
  call void @_ZN6icu_7513UnicodeStringD1Ev(ptr noundef nonnull align 8 dereferenceable(64) %ref.tmp) #15
  resume { ptr, i32 } %.pn

if.else:                                          ; preds = %entry
  store i32 3, ptr %status, align 4
  br label %if.end

if.end:                                           ; preds = %invoke.cont10, %for.cond.preheader, %if.else
  %t.1 = phi ptr [ null, %if.else ], [ null, %for.cond.preheader ], [ %call5, %invoke.cont10 ]
  call void @ures_close_75(ptr noundef %t.1)
  ret void
}